Certificate:
    Data:
        Version: 3 (0x2)
        Serial Number:
            53:f8:da:b4:2b:b3:53:ff:db:96:69:f4:54:4b:8c:94:c9:24:d4:32
        Signature Algorithm: sha256WithRSAEncryption
        Issuer: C=US, ST=California, O=Apache Software Foundation, OU=Pulsar, CN=Pulsar CA/emailAddress=dev@pulsar.apache.org
        Validity
            Not Before: Dec 18 06:29:25 2024 GMT
            Not After : Dec 13 06:29:25 2044 GMT
        Subject: C=US, ST=California, O=Apache Software Foundation, OU=Pulsar, CN=localhost/emailAddress=dev@pulsar.apache.org
        Subject Public Key Info:
            Public Key Algorithm: rsaEncryption
                RSA Public-Key: (2048 bit)
                Modulus:
                    00:9b:2a:6f:24:02:23:f7:ff:e6:75:61:ca:07:a8:
                    c0:ab:e9:8d:eb:51:2e:64:f7:9e:9b:d4:b4:be:3a:
                    fa:f4:6e:c6:92:8f:38:4d:08:cd:89:15:3e:2c:c4:
                    99:6d:cb:58:80:fc:e0:4d:d6:7d:f6:82:ab:0d:94:
                    f2:e2:45:c9:d3:15:95:57:0a:6c:86:dc:78:64:3b:
                    34:4b:01:7c:5d:de:4f:d4:21:1a:5d:27:a0:a5:70:
                    7a:2e:02:50:e1:19:b4:b9:05:df:99:0d:8b:cc:62:
                    dc:10:73:fa:72:8b:38:7f:d3:56:54:61:50:bb:92:
                    ff:09:71:09:c7:bd:04:43:3c:8c:9c:8b:32:d1:05:
                    04:8a:c6:89:d8:78:56:4d:da:2f:f4:ec:34:37:26:
                    b5:87:e4:3f:26:c9:41:60:ba:31:10:19:be:f8:0c:
                    a4:0a:85:19:59:e2:00:5d:b7:c0:bd:d1:2e:fc:a6:
                    34:8b:85:2a:cc:05:f6:fb:e4:00:e6:74:95:ff:02:
                    6f:43:7f:39:a7:c2:83:8e:5b:38:40:c9:42:c8:bc:
                    26:72:36:35:64:c2:54:22:11:87:e8:65:8f:3d:e9:
                    41:a7:6d:19:88:9a:20:9b:9a:52:e7:d2:cb:b3:e0:
                    2e:8f:c1:56:54:bc:6d:14:30:73:c5:d7:8e:d0:5a:
                    5e:cd
                Exponent: 65537 (0x10001)
        X509v3 extensions:
            X509v3 Basic Constraints: 
                CA:FALSE
            Netscape Comment: 
                OpenSSL Generated Certificate
            X509v3 Subject Key Identifier: 
                49:3C:B2:98:30:CE:7F:79:7A:C6:8B:57:CA:24:9F:12:82:1E:5D:EF
            X509v3 Authority Key Identifier: 
                keyid:9C:66:A6:5E:95:A5:D7:72:6E:11:76:44:43:35:B4:61:FB:70:27:6F

    Signature Algorithm: sha256WithRSAEncryption
         46:44:07:07:74:de:fa:e9:ad:ee:10:87:72:e4:06:81:e7:d9:
         9c:91:99:9e:fe:b2:fe:29:fc:58:12:38:7d:28:c1:3b:d6:ca:
         19:dd:06:6c:1e:95:17:58:fa:48:47:62:2b:4f:29:a2:39:3a:
         90:f4:37:5a:8c:75:4c:60:b3:61:50:94:5a:4d:70:6a:50:62:
         c8:17:46:38:92:1a:02:4d:71:ad:ab:94:10:a3:91:b1:aa:18:
         a9:00:88:b7:16:25:3c:aa:59:45:90:49:9a:9c:15:5e:d5:2f:
         2f:2a:9e:61:77:b8:59:b7:7e:30:c9:8e:89:2a:57:11:84:e2:
         cd:a6:ba:78:73:05:a0:f0:aa:47:5b:8c:f2:a9:20:c6:f7:50:
         39:d7:07:bc:ef:7f:04:85:60:1b:c2:5e:53:dc:40:f9:22:f8:
         78:b6:be:d7:1b:84:51:45:f7:30:6c:15:fd:c4:07:83:cf:89:
         f0:6f:f9:49:7a:cc:f3:17:00:ef:33:f5:0a:6a:79:75:e5:6f:
         2e:1f:ad:bf:7e:34:e8:1c:2e:08:de:1e:16:c0:ab:73:69:f9:
         2e:09:d1:7b:f4:f0:8c:59:b6:82:c3:1a:a3:8c:25:0f:78:bf:
         0b:b3:87:72:46:36:be:8e:4c:67:4c:ca:49:05:a0:2e:fd:3d:
         a1:62:d6:01
-----BEGIN CERTIFICATE-----
MIIELzCCAxegAwIBAgIUU/jatCuzU//blmn0VEuMlMkk1DIwDQYJKoZIhvcNAQEL
BQAwgZIxCzAJBgNVBAYTAlVTMRMwEQYDVQQIDApDYWxpZm9ybmlhMSMwIQYDVQQK
DBpBcGFjaGUgU29mdHdhcmUgRm91bmRhdGlvbjEPMA0GA1UECwwGUHVsc2FyMRIw
EAYDVQQDDAlQdWxzYXIgQ0ExJDAiBgkqhkiG9w0BCQEWFWRldkBwdWxzYXIuYXBh
Y2hlLm9yZzAeFw0yNDEyMTgwNjI5MjVaFw00NDEyMTMwNjI5MjVaMIGSMQswCQYD
VQQGEwJVUzETMBEGA1UECAwKQ2FsaWZvcm5pYTEjMCEGA1UECgwaQXBhY2hlIFNv
ZnR3YXJlIEZvdW5kYXRpb24xDzANBgNVBAsMBlB1bHNhcjESMBAGA1UEAwwJbG9j
YWxob3N0MSQwIgYJKoZIhvcNAQkBFhVkZXZAcHVsc2FyLmFwYWNoZS5vcmcwggEi
MA0GCSqGSIb3DQEBAQUAA4IBDwAwggEKAoIBAQCbKm8kAiP3/+Z1YcoHqMCr6Y3r
US5k956b1LS+Ovr0bsaSjzhNCM2JFT4sxJlty1iA/OBN1n32gqsNlPLiRcnTFZVX
CmyG3HhkOzRLAXxd3k/UIRpdJ6ClcHouAlDhGbS5Bd+ZDYvMYtwQc/pyizh/01ZU
YVC7kv8JcQnHvQRDPIycizLRBQSKxonYeFZN2i/07DQ3JrWH5D8myUFgujEQGb74
DKQKhRlZ4gBdt8C90S78pjSLhSrMBfb75ADmdJX/Am9DfzmnwoOOWzhAyULIvCZy
NjVkwlQiEYfoZY896UGnbRmImiCbmlLn0suz4C6PwVZUvG0UMHPF147QWl7NAgMB
AAGjezB5MAkGA1UdEwQCMAAwLAYJYIZIAYb4QgENBB8WHU9wZW5TU0wgR2VuZXJh
dGVkIENlcnRpZmljYXRlMB0GA1UdDgQWBBRJPLKYMM5/eXrGi1fKJJ8Sgh5d7zAf
BgNVHSMEGDAWgBScZqZelaXXcm4RdkRDNbRh+3AnbzANBgkqhkiG9w0BAQsFAAOC
AQEARkQHB3Te+umt7hCHcuQGgefZnJGZnv6y/in8WBI4fSjBO9bKGd0GbB6VF1j6
SEdiK08pojk6kPQ3Wox1TGCzYVCUWk1walBiyBdGOJIaAk1xrauUEKORsaoYqQCI
txYlPKpZRZBJmpwVXtUvLyqeYXe4Wbd+MMmOiSpXEYTizaa6eHMFoPCqR1uM8qkg
xvdQOdcHvO9/BIVgG8JeU9xA+SL4eLa+1xuEUUX3MGwV/cQHg8+J8G/5SXrM8xcA
7zP1Cmp5deVvLh+tv3406BwuCN4eFsCrc2n5LgnRe/TwjFm2gsMao4wlD3i/C7OH
ckY2vo5MZ0zKSQWgLv09oWLWAQ==
-----END CERTIFICATE-----
