Certificate:
    Data:
        Version: 3 (0x2)
        Serial Number:
            53:f8:da:b4:2b:b3:53:ff:db:96:69:f4:54:4b:8c:94:c9:24:d4:30
        Signature Algorithm: sha256WithRSAEncryption
        Issuer: C=US, ST=California, O=Apache Software Foundation, OU=Pulsar, CN=Pulsar CA/emailAddress=dev@pulsar.apache.org
        Validity
            Not Before: Dec 18 05:14:53 2024 GMT
            Not After : Dec 13 05:14:53 2044 GMT
        Subject: C=US, ST=California, O=Apache Software Foundation, OU=Pulsar, CN=Pulsar CA/emailAddress=dev@pulsar.apache.org
        Subject Public Key Info:
            Public Key Algorithm: rsaEncryption
                RSA Public-Key: (2048 bit)
                Modulus:
                    00:d5:72:38:a5:5c:cb:a7:2b:f7:a7:ed:34:59:69:
                    9f:9d:f6:5c:a2:91:c1:4c:41:15:3f:13:6d:4a:3b:
                    5a:25:1c:5e:c5:8c:d9:7e:44:19:be:49:f4:3b:fb:
                    fb:85:0d:04:29:1c:31:65:4f:fa:2c:ac:8f:90:e2:
                    c4:d1:9d:1d:bd:60:24:d3:b4:50:cc:6c:42:e0:9c:
                    a3:ef:ee:44:b8:51:b8:64:a2:77:03:16:fd:b7:17:
                    ed:d6:28:5f:c0:71:3a:c3:87:55:a5:2c:07:16:f1:
                    c8:79:07:3f:69:de:cd:b3:1d:35:2f:0b:e9:e3:8e:
                    9b:a8:47:ee:fe:b4:9b:12:78:01:cb:45:90:52:18:
                    0c:ec:3e:db:fd:1e:38:3b:f4:e0:01:f6:8d:e7:fe:
                    bc:b4:89:f4:cc:64:6e:65:66:c3:2b:6f:3c:04:b4:
                    3e:52:18:b8:27:f8:87:6d:87:41:d5:a8:61:20:d2:
                    50:75:ee:af:6f:08:2d:9e:d5:d0:57:92:0a:d1:06:
                    9a:f6:c0:c2:c8:38:c3:0a:93:ea:be:7d:25:32:75:
                    eb:dd:d2:30:a7:07:f1:b7:88:b7:60:1c:32:a3:45:
                    e7:73:38:a8:35:b3:d3:cd:0e:bc:bd:f7:57:03:aa:
                    d7:e1:dc:2a:0a:41:69:eb:35:df:8c:c0:ec:e8:2d:
                    9a:77
                Exponent: 65537 (0x10001)
        X509v3 extensions:
            X509v3 Subject Key Identifier: 
                9C:66:A6:5E:95:A5:D7:72:6E:11:76:44:43:35:B4:61:FB:70:27:6F
            X509v3 Authority Key Identifier: 
                keyid:9C:66:A6:5E:95:A5:D7:72:6E:11:76:44:43:35:B4:61:FB:70:27:6F

            X509v3 Basic Constraints: critical
                CA:TRUE
    Signature Algorithm: sha256WithRSAEncryption
         c4:99:05:f8:fd:0e:45:f5:01:3d:58:dd:11:77:da:e3:49:cc:
         7c:1c:56:16:51:5a:b7:ad:9f:ab:95:5b:55:9c:2f:f5:11:62:
         a4:6b:df:3e:6f:a5:30:80:34:57:c4:cb:00:35:41:14:ba:09:
         b8:20:0a:c1:0f:5b:e8:51:40:83:be:72:14:84:9f:26:47:3e:
         5d:20:73:47:b9:f9:8c:13:d2:a3:ec:ce:a8:57:d4:f6:e8:3c:
         55:5c:d9:cb:00:c8:e3:20:5c:78:d3:06:fb:16:cb:15:e7:52:
         c8:c5:16:20:26:ee:9c:8f:ed:ba:7a:f2:07:a9:13:6b:44:83:
         03:18:5e:67:c3:61:5d:85:17:d9:f8:60:a9:84:f0:37:ce:23:
         83:ba:a4:00:b4:18:ce:df:d5:21:53:5c:7f:5c:55:33:49:f3:
         28:5f:39:14:bb:05:6b:6b:ea:da:e4:7a:3a:ef:e6:05:4b:ae:
         d1:ad:f3:84:d3:18:ba:23:ff:04:2e:62:b6:9f:b3:dd:0b:2b:
         e3:6a:89:8c:ff:11:8b:5c:63:5d:39:05:56:c3:ea:3a:fd:6b:
         87:06:74:ad:cc:0c:10:70:ec:53:49:eb:42:d8:30:45:80:0a:
         8c:6a:51:d2:1c:65:74:c8:46:4e:1d:7f:c3:b1:b2:5b:f9:2c:
         85:e3:8d:f6
-----BEGIN CERTIFICATE-----
MIIEBzCCAu+gAwIBAgIUU/jatCuzU//blmn0VEuMlMkk1DAwDQYJKoZIhvcNAQEL
BQAwgZIxCzAJBgNVBAYTAlVTMRMwEQYDVQQIDApDYWxpZm9ybmlhMSMwIQYDVQQK
DBpBcGFjaGUgU29mdHdhcmUgRm91bmRhdGlvbjEPMA0GA1UECwwGUHVsc2FyMRIw
EAYDVQQDDAlQdWxzYXIgQ0ExJDAiBgkqhkiG9w0BCQEWFWRldkBwdWxzYXIuYXBh
Y2hlLm9yZzAeFw0yNDEyMTgwNTE0NTNaFw00NDEyMTMwNTE0NTNaMIGSMQswCQYD
VQQGEwJVUzETMBEGA1UECAwKQ2FsaWZvcm5pYTEjMCEGA1UECgwaQXBhY2hlIFNv
ZnR3YXJlIEZvdW5kYXRpb24xDzANBgNVBAsMBlB1bHNhcjESMBAGA1UEAwwJUHVs
c2FyIENBMSQwIgYJKoZIhvcNAQkBFhVkZXZAcHVsc2FyLmFwYWNoZS5vcmcwggEi
MA0GCSqGSIb3DQEBAQUAA4IBDwAwggEKAoIBAQDVcjilXMunK/en7TRZaZ+d9lyi
kcFMQRU/E21KO1olHF7FjNl+RBm+SfQ7+/uFDQQpHDFlT/osrI+Q4sTRnR29YCTT
tFDMbELgnKPv7kS4UbhkoncDFv23F+3WKF/AcTrDh1WlLAcW8ch5Bz9p3s2zHTUv
C+njjpuoR+7+tJsSeAHLRZBSGAzsPtv9Hjg79OAB9o3n/ry0ifTMZG5lZsMrbzwE
tD5SGLgn+Idth0HVqGEg0lB17q9vCC2e1dBXkgrRBpr2wMLIOMMKk+q+fSUydevd
0jCnB/G3iLdgHDKjRedzOKg1s9PNDry991cDqtfh3CoKQWnrNd+MwOzoLZp3AgMB
AAGjUzBRMB0GA1UdDgQWBBScZqZelaXXcm4RdkRDNbRh+3AnbzAfBgNVHSMEGDAW
gBScZqZelaXXcm4RdkRDNbRh+3AnbzAPBgNVHRMBAf8EBTADAQH/MA0GCSqGSIb3
DQEBCwUAA4IBAQDEmQX4/Q5F9QE9WN0Rd9rjScx8HFYWUVq3rZ+rlVtVnC/1EWKk
a98+b6UwgDRXxMsANUEUugm4IArBD1voUUCDvnIUhJ8mRz5dIHNHufmME9Kj7M6o
V9T26DxVXNnLAMjjIFx40wb7FssV51LIxRYgJu6cj+26evIHqRNrRIMDGF5nw2Fd
hRfZ+GCphPA3ziODuqQAtBjO39UhU1x/XFUzSfMoXzkUuwVra+ra5Ho67+YFS67R
rfOE0xi6I/8ELmK2n7PdCyvjaomM/xGLXGNdOQVWw+o6/WuHBnStzAwQcOxTSetC
2DBFgAqMalHSHGV0yEZOHX/DsbJb+SyF4432
-----END CERTIFICATE-----
