Certificate:
    Data:
        Version: 3 (0x2)
        Serial Number:
            53:f8:da:b4:2b:b3:53:ff:db:96:69:f4:54:4b:8c:94:c9:24:d4:33
        Signature Algorithm: sha256WithRSAEncryption
        Issuer: C=US, ST=California, O=Apache Software Foundation, OU=Pulsar, CN=Pulsar CA/emailAddress=dev@pulsar.apache.org
        Validity
            Not Before: Dec 18 06:42:06 2024 GMT
            Not After : Dec 13 06:42:06 2044 GMT
        Subject: C=US, ST=California, O=Apache Software Foundation, OU=Pulsar, CN=admin/emailAddress=dev@pulsar.apache.org
        Subject Public Key Info:
            Public Key Algorithm: rsaEncryption
                RSA Public-Key: (2048 bit)
                Modulus:
                    00:ab:61:f5:12:b1:e1:ae:19:01:3e:59:4a:c6:ca:
                    00:0c:96:e8:76:3a:83:20:d9:af:3a:e1:11:20:12:
                    e0:e4:d0:70:8f:4b:7b:af:e1:89:ef:9b:c5:a9:c2:
                    ed:ae:24:8d:bb:42:6e:ec:59:11:3f:f5:63:59:61:
                    18:9f:70:b6:76:88:e2:ca:79:15:cc:fb:9c:5e:5c:
                    bb:a1:d7:f0:d8:11:d4:17:34:1e:81:7e:0b:0e:05:
                    be:5d:fa:d6:46:af:e1:95:d8:a0:5d:c5:2f:d9:a9:
                    8f:69:64:49:95:f7:42:16:6a:84:2b:2e:af:91:73:
                    3d:b6:d4:44:56:9a:61:43:49:15:22:ae:90:5d:04:
                    29:90:4e:b2:41:34:73:3e:a2:48:05:1c:bc:8e:1b:
                    0b:c1:d5:df:56:32:40:e9:91:a2:7b:de:31:2b:67:
                    f1:8e:d6:c5:c0:87:57:70:29:f9:af:db:57:a0:2e:
                    8c:30:0a:a7:47:39:33:4c:d7:2d:32:aa:48:29:bd:
                    c4:48:c5:58:52:07:c4:99:b1:cc:66:da:ac:28:4d:
                    c1:bc:1f:44:3f:a3:63:61:bd:ff:48:61:76:04:b2:
                    7d:1c:6e:9c:ee:82:bb:f7:60:1c:7a:a0:98:be:2d:
                    70:43:2f:64:bf:d2:0f:20:25:f7:c7:7d:70:05:b8:
                    2e:bf
                Exponent: 65537 (0x10001)
        X509v3 extensions:
            X509v3 Basic Constraints: 
                CA:FALSE
            Netscape Comment: 
                OpenSSL Generated Certificate
            X509v3 Subject Key Identifier: 
                3C:01:00:F0:C7:91:EF:2A:3F:76:F0:A1:75:83:FF:AD:F9:8B:4C:BF
            X509v3 Authority Key Identifier: 
                keyid:9C:66:A6:5E:95:A5:D7:72:6E:11:76:44:43:35:B4:61:FB:70:27:6F

    Signature Algorithm: sha256WithRSAEncryption
         c7:d2:cd:c4:f0:29:47:b6:41:94:56:85:15:39:6f:c4:ca:b1:
         ac:d3:e8:ef:62:b1:03:e4:5f:19:f4:f2:aa:e8:6f:47:61:1d:
         9d:8d:38:03:a2:d0:a6:66:cd:9d:86:15:95:48:d4:00:b2:2b:
         99:20:7b:26:1a:8d:a1:95:8b:8d:ea:cd:7a:a1:4b:80:3c:0f:
         14:1c:14:94:c4:aa:94:ea:79:df:39:57:46:e1:2f:26:c8:ac:
         f6:42:e3:81:af:30:4a:58:91:88:9a:82:8f:08:c9:b2:6f:18:
         4e:d0:32:12:ed:f6:7e:70:bb:50:f8:44:ed:5f:f5:39:26:91:
         7e:7d:e6:81:48:0e:ef:d3:db:c4:d3:85:90:c7:ef:1f:52:8f:
         59:bb:8e:c0:bb:29:49:d2:2b:54:9b:1e:34:3f:90:6e:b3:bc:
         16:1a:52:87:a4:17:fc:73:2b:da:ec:1d:a7:15:9e:65:b7:4f:
         23:9c:4e:f7:55:7d:31:95:6a:b8:dc:12:9a:0d:e1:de:5b:e8:
         79:e8:f2:37:12:72:df:94:bd:dd:aa:83:f7:d4:30:d0:6e:bf:
         8d:57:83:da:9f:33:2b:6d:98:44:1a:f7:3d:26:c8:d2:9f:c4:
         66:c1:94:f7:84:89:39:9e:ca:d9:e3:46:fd:30:9a:09:76:46:
         30:09:00:22
-----BEGIN CERTIFICATE-----
MIIEKzCCAxOgAwIBAgIUU/jatCuzU//blmn0VEuMlMkk1DMwDQYJKoZIhvcNAQEL
BQAwgZIxCzAJBgNVBAYTAlVTMRMwEQYDVQQIDApDYWxpZm9ybmlhMSMwIQYDVQQK
DBpBcGFjaGUgU29mdHdhcmUgRm91bmRhdGlvbjEPMA0GA1UECwwGUHVsc2FyMRIw
EAYDVQQDDAlQdWxzYXIgQ0ExJDAiBgkqhkiG9w0BCQEWFWRldkBwdWxzYXIuYXBh
Y2hlLm9yZzAeFw0yNDEyMTgwNjQyMDZaFw00NDEyMTMwNjQyMDZaMIGOMQswCQYD
VQQGEwJVUzETMBEGA1UECAwKQ2FsaWZvcm5pYTEjMCEGA1UECgwaQXBhY2hlIFNv
ZnR3YXJlIEZvdW5kYXRpb24xDzANBgNVBAsMBlB1bHNhcjEOMAwGA1UEAwwFYWRt
aW4xJDAiBgkqhkiG9w0BCQEWFWRldkBwdWxzYXIuYXBhY2hlLm9yZzCCASIwDQYJ
KoZIhvcNAQEBBQADggEPADCCAQoCggEBAKth9RKx4a4ZAT5ZSsbKAAyW6HY6gyDZ
rzrhESAS4OTQcI9Le6/hie+bxanC7a4kjbtCbuxZET/1Y1lhGJ9wtnaI4sp5Fcz7
nF5cu6HX8NgR1Bc0HoF+Cw4Fvl361kav4ZXYoF3FL9mpj2lkSZX3QhZqhCsur5Fz
PbbURFaaYUNJFSKukF0EKZBOskE0cz6iSAUcvI4bC8HV31YyQOmRonveMStn8Y7W
xcCHV3Ap+a/bV6AujDAKp0c5M0zXLTKqSCm9xEjFWFIHxJmxzGbarChNwbwfRD+j
Y2G9/0hhdgSyfRxunO6Cu/dgHHqgmL4tcEMvZL/SDyAl98d9cAW4Lr8CAwEAAaN7
MHkwCQYDVR0TBAIwADAsBglghkgBhvhCAQ0EHxYdT3BlblNTTCBHZW5lcmF0ZWQg
Q2VydGlmaWNhdGUwHQYDVR0OBBYEFDwBAPDHke8qP3bwoXWD/635i0y/MB8GA1Ud
IwQYMBaAFJxmpl6VpddybhF2REM1tGH7cCdvMA0GCSqGSIb3DQEBCwUAA4IBAQDH
0s3E8ClHtkGUVoUVOW/EyrGs0+jvYrED5F8Z9PKq6G9HYR2djTgDotCmZs2dhhWV
SNQAsiuZIHsmGo2hlYuN6s16oUuAPA8UHBSUxKqU6nnfOVdG4S8myKz2QuOBrzBK
WJGImoKPCMmybxhO0DIS7fZ+cLtQ+ETtX/U5JpF+feaBSA7v09vE04WQx+8fUo9Z
u47AuylJ0itUmx40P5Bus7wWGlKHpBf8cyva7B2nFZ5lt08jnE73VX0xlWq43BKa
DeHeW+h56PI3EnLflL3dqoP31DDQbr+NV4PanzMrbZhEGvc9JsjSn8RmwZT3hIk5
nsrZ40b9MJoJdkYwCQAi
-----END CERTIFICATE-----
