Certificate:
    Data:
        Version: 3 (0x2)
        Serial Number:
            53:f8:da:b4:2b:b3:53:ff:db:96:69:f4:54:4b:8c:94:c9:24:d4:31
        Signature Algorithm: sha256WithRSAEncryption
        Issuer: C=US, ST=California, O=Apache Software Foundation, OU=Pulsar, CN=Pulsar CA/emailAddress=dev@pulsar.apache.org
        Validity
            Not Before: Dec 18 05:37:30 2024 GMT
            Not After : Dec 13 05:37:30 2044 GMT
        Subject: C=US, ST=California, L=Palo Alto, O=Apache Software Foundation, OU=Pulsar, CN=Pulsar Intermediate CA/emailAddress=dev@pulsar.apache.org
        Subject Public Key Info:
            Public Key Algorithm: rsaEncryption
                RSA Public-Key: (2048 bit)
                Modulus:
                    00:ba:a2:d4:14:d1:47:40:5f:72:5a:e7:46:c1:a9:
                    2f:79:71:d6:ae:b1:cb:5c:b3:1e:b3:6d:60:3b:60:
                    0e:1c:5b:c3:b8:7c:6b:af:49:41:ad:76:a0:c8:c4:
                    20:ad:54:f9:31:ab:e8:1d:b9:45:82:be:61:25:eb:
                    90:85:c1:ec:7a:f8:73:22:dd:65:db:9b:e4:12:f8:
                    1e:93:4c:cd:d1:42:86:a6:48:38:26:99:00:dc:82:
                    9f:c7:b1:e5:89:a6:a5:3e:67:70:b4:cb:11:5a:eb:
                    4e:15:2b:11:ac:ce:a6:0f:d2:79:d2:81:78:ed:f6:
                    c5:7a:23:5a:7a:04:41:db:fe:d5:8d:e6:dd:6e:b3:
                    b9:e1:1a:f7:b7:e0:79:f5:1d:1b:7d:05:3b:f7:18:
                    f9:9c:a7:5b:cf:75:bd:05:ac:30:f1:d9:b6:ac:7c:
                    f0:2d:1b:82:0e:0e:c2:62:c6:fd:52:2a:37:c3:3d:
                    10:75:41:3c:b0:e6:38:0f:9d:a9:63:bf:b5:a2:32:
                    be:f4:9d:18:ed:49:a4:71:a0:76:14:fb:64:d9:b5:
                    3d:38:b9:a8:71:cc:a1:91:57:ea:37:bb:8b:77:c7:
                    e9:6b:f9:5b:97:20:06:a5:e2:3c:0e:8b:a4:a1:24:
                    5b:e7:f0:93:89:cb:c5:0a:86:16:0a:47:b5:21:5c:
                    63:55
                Exponent: 65537 (0x10001)
        X509v3 extensions:
            X509v3 Subject Key Identifier: 
                6C:76:A5:22:B5:6C:0E:CE:A6:CB:07:A3:45:C0:27:60:FF:A4:28:94
            X509v3 Authority Key Identifier: 
                keyid:9C:66:A6:5E:95:A5:D7:72:6E:11:76:44:43:35:B4:61:FB:70:27:6F

            X509v3 Basic Constraints: critical
                CA:TRUE
    Signature Algorithm: sha256WithRSAEncryption
         80:52:5a:48:6b:0a:77:5d:e2:86:5b:dd:23:0a:8a:85:29:e2:
         71:d4:5b:ba:c5:15:bc:56:82:7f:cd:01:72:81:29:ef:1e:0b:
         29:67:3b:f3:c4:ba:2f:5c:07:54:ee:0a:73:52:f2:9b:91:71:
         b6:7a:5e:23:90:a7:9f:79:2f:f7:d5:12:30:e1:83:0c:40:c1:
         33:33:6a:3f:b8:d6:bc:39:3b:5a:22:e9:bc:eb:23:38:52:0b:
         f2:78:7f:7c:fc:b8:7a:a2:a6:c3:2d:43:92:a4:cb:1f:be:b6:
         03:b4:61:a9:cf:b3:a3:99:a7:33:aa:c7:e0:a7:04:b8:30:df:
         ad:61:de:7b:17:c9:25:71:9f:78:d6:0f:a2:4f:5f:21:e8:1d:
         ba:02:ec:4d:5f:4b:40:87:3d:ff:81:0e:1c:11:fb:98:13:81:
         9b:47:d3:ce:72:7f:e9:ab:05:bc:3c:d2:7d:71:41:0c:1c:58:
         dc:70:16:27:9f:fc:8c:a6:7b:c7:fc:e5:28:53:d6:79:9d:17:
         68:17:44:24:b4:a5:08:6b:3b:c5:c2:84:dd:58:cf:7d:5a:cb:
         3b:f5:d7:5c:65:cd:43:51:b5:cb:fa:64:6d:a1:bf:4c:a2:ee:
         b4:c4:f9:52:9c:85:10:f4:59:12:ab:a9:34:36:91:bc:88:fd:
         08:70:3b:89
-----BEGIN CERTIFICATE-----
MIIEKDCCAxCgAwIBAgIUU/jatCuzU//blmn0VEuMlMkk1DEwDQYJKoZIhvcNAQEL
BQAwgZIxCzAJBgNVBAYTAlVTMRMwEQYDVQQIDApDYWxpZm9ybmlhMSMwIQYDVQQK
DBpBcGFjaGUgU29mdHdhcmUgRm91bmRhdGlvbjEPMA0GA1UECwwGUHVsc2FyMRIw
EAYDVQQDDAlQdWxzYXIgQ0ExJDAiBgkqhkiG9w0BCQEWFWRldkBwdWxzYXIuYXBh
Y2hlLm9yZzAeFw0yNDEyMTgwNTM3MzBaFw00NDEyMTMwNTM3MzBaMIGzMQswCQYD
VQQGEwJVUzETMBEGA1UECAwKQ2FsaWZvcm5pYTESMBAGA1UEBwwJUGFsbyBBbHRv
MSMwIQYDVQQKDBpBcGFjaGUgU29mdHdhcmUgRm91bmRhdGlvbjEPMA0GA1UECwwG
UHVsc2FyMR8wHQYDVQQDDBZQdWxzYXIgSW50ZXJtZWRpYXRlIENBMSQwIgYJKoZI
hvcNAQkBFhVkZXZAcHVsc2FyLmFwYWNoZS5vcmcwggEiMA0GCSqGSIb3DQEBAQUA
A4IBDwAwggEKAoIBAQC6otQU0UdAX3Ja50bBqS95cdausctcsx6zbWA7YA4cW8O4
fGuvSUGtdqDIxCCtVPkxq+gduUWCvmEl65CFwex6+HMi3WXbm+QS+B6TTM3RQoam
SDgmmQDcgp/HseWJpqU+Z3C0yxFa604VKxGszqYP0nnSgXjt9sV6I1p6BEHb/tWN
5t1us7nhGve34Hn1HRt9BTv3GPmcp1vPdb0FrDDx2basfPAtG4IODsJixv1SKjfD
PRB1QTyw5jgPnaljv7WiMr70nRjtSaRxoHYU+2TZtT04uahxzKGRV+o3u4t3x+lr
+VuXIAal4jwOi6ShJFvn8JOJy8UKhhYKR7UhXGNVAgMBAAGjUzBRMB0GA1UdDgQW
BBRsdqUitWwOzqbLB6NFwCdg/6QolDAfBgNVHSMEGDAWgBScZqZelaXXcm4RdkRD
NbRh+3AnbzAPBgNVHRMBAf8EBTADAQH/MA0GCSqGSIb3DQEBCwUAA4IBAQCAUlpI
awp3XeKGW90jCoqFKeJx1Fu6xRW8VoJ/zQFygSnvHgspZzvzxLovXAdU7gpzUvKb
kXG2el4jkKefeS/31RIw4YMMQMEzM2o/uNa8OTtaIum86yM4UgvyeH98/Lh6oqbD
LUOSpMsfvrYDtGGpz7OjmaczqsfgpwS4MN+tYd57F8klcZ941g+iT18h6B26AuxN
X0tAhz3/gQ4cEfuYE4GbR9POcn/pqwW8PNJ9cUEMHFjccBYnn/yMpnvH/OUoU9Z5
nRdoF0QktKUIazvFwoTdWM99Wss79ddcZc1DUbXL+mRtob9Mou60xPlSnIUQ9FkS
q6k0NpG8iP0IcDuJ
-----END CERTIFICATE-----
